; Function Attrs: mustprogress nofree norecurse nosync nounwind willreturn memory(read, inaccessiblemem: none) uwtable
define noundef zeroext i1 @_ZNK4base8internal13WeakReference8is_validEv(ptr noundef nonnull readonly align 8 captures(none) dereferenceable(8) %0) local_unnamed_addr #6 align 2 {
  %2 = load ptr, ptr %0, align 8, !tbaa !14
  %.not = icmp eq ptr %2, null
  br i1 %.not, label %7, label %3

3:                                                ; preds = %1
  %4 = getelementptr inbounds nuw i8, ptr %2, i64 5
  %5 = load i8, ptr %4, align 1, !tbaa !3, !range !12, !noundef !13
  %6 = trunc nuw i8 %5 to i1
  br label %7

7:                                                ; preds = %3, %1
  %8 = phi i1 [ false, %1 ], [ %6, %3 ]
  ret i1 %8
}